; Function Attrs: mustprogress uwtable
define void @_ZN7rocksdb22TransactionDBMutexImpl10TryLockForEl(ptr noalias nocapture writeonly sret(%"class.rocksdb::Status") align 8 %agg.result, ptr noundef nonnull align 8 dereferenceable(48) %this, i64 noundef %timeout_time) unnamed_addr #0 align 2 personality ptr @__gxx_personality_v0 {
entry:
  %cmp = icmp eq i64 %timeout_time, 0
  %mutex_ = getelementptr inbounds i8, ptr %this, i64 8
  br i1 %cmp, label %if.then, label %if.else

if.then:                                          ; preds = %entry
  %call1.i.i = tail call noundef i32 @pthread_mutex_trylock(ptr noundef nonnull %mutex_) #11
  %tobool.not.i = icmp eq i32 %call1.i.i, 0
  br i1 %tobool.not.i, label %if.end4, label %if.then3

if.else:                                          ; preds = %entry
  %call1.i.i1 = tail call noundef i32 @pthread_mutex_lock(ptr noundef nonnull %mutex_) #11
  %tobool.not.i2 = icmp eq i32 %call1.i.i1, 0
  br i1 %tobool.not.i2, label %if.end4, label %if.then.i

if.then.i:                                        ; preds = %if.else
  tail call void @_ZSt20__throw_system_errori(i32 noundef %call1.i.i1) #12
  unreachable

if.then3:                                         ; preds = %if.then
  store i8 9, ptr %agg.result, align 8, !alias.scope !7
  %subcode_.i.i = getelementptr inbounds i8, ptr %agg.result, i64 1
  store i8 1, ptr %subcode_.i.i, align 1, !alias.scope !7
  %sev_.i.i = getelementptr inbounds i8, ptr %agg.result, i64 2
  %state_.i.i = getelementptr inbounds i8, ptr %agg.result, i64 8
  store ptr null, ptr %state_.i.i, align 8, !alias.scope !7
  store i32 0, ptr %sev_.i.i, align 2, !alias.scope !7
  br label %return

if.end4:                                          ; preds = %if.else, %if.then
  %state_.i.i3 = getelementptr inbounds i8, ptr %agg.result, i64 8
  store ptr null, ptr %state_.i.i3, align 8, !alias.scope !10
  tail call void @llvm.memset.p0.i64(ptr noundef nonnull align 8 dereferenceable(6) %agg.result, i8 0, i64 6, i1 false), !alias.scope !10
  br label %return

return:                                           ; preds = %if.end4, %if.then3
  ret void
}